; Function Attrs: mustprogress nounwind uwtable
define internal void @_ZN12_GLOBAL__N_124AArch64TargetAsmStreamer24emitARM64WinCFISaveFPLRXEi(ptr nocapture noundef nonnull readonly align 8 dereferenceable(32) %0, i32 noundef %1) unnamed_addr #0 align 2 {
  %3 = getelementptr inbounds nuw i8, ptr %0, i64 24
  %4 = load ptr, ptr %3, align 8
  %5 = getelementptr inbounds nuw i8, ptr %4, i64 24
  %6 = load ptr, ptr %5, align 8
  %7 = getelementptr inbounds nuw i8, ptr %4, i64 32
  %8 = load ptr, ptr %7, align 8
  %9 = ptrtoint ptr %6 to i64
  %10 = ptrtoint ptr %8 to i64
  %11 = sub i64 %9, %10
  %12 = icmp ult i64 %11, 18
  br i1 %12, label %13, label %15

13:                                               ; preds = %2
  %14 = tail call noundef nonnull align 8 dereferenceable(48) ptr @_ZN4llvm11raw_ostream5writeEPKcm(ptr noundef nonnull align 8 dereferenceable(48) %4, ptr noundef nonnull @.str.11, i64 noundef 18) #12
  br label %_ZN4llvm11raw_ostreamlsEPKc.exit

15:                                               ; preds = %2
  tail call void @llvm.memcpy.p0.p0.i64(ptr noundef nonnull align 1 dereferenceable(18) %8, ptr noundef nonnull align 1 dereferenceable(18) @.str.11, i64 18, i1 false)
  %16 = load ptr, ptr %7, align 8
  %17 = getelementptr inbounds i8, ptr %16, i64 18
  store ptr %17, ptr %7, align 8
  br label %_ZN4llvm11raw_ostreamlsEPKc.exit

_ZN4llvm11raw_ostreamlsEPKc.exit:                 ; preds = %13, %15
  %.0.i.i = phi ptr [ %14, %13 ], [ %4, %15 ]
  %18 = sext i32 %1 to i64
  %19 = tail call noundef nonnull align 8 dereferenceable(48) ptr @_ZN4llvm11raw_ostreamlsEl(ptr noundef nonnull align 8 dereferenceable(48) %.0.i.i, i64 noundef %18) #12
  %20 = getelementptr inbounds nuw i8, ptr %19, i64 24
  %21 = load ptr, ptr %20, align 8
  %22 = getelementptr inbounds nuw i8, ptr %19, i64 32
  %23 = load ptr, ptr %22, align 8
  %24 = icmp eq ptr %21, %23
  br i1 %24, label %25, label %27

25:                                               ; preds = %_ZN4llvm11raw_ostreamlsEPKc.exit
  %26 = tail call noundef nonnull align 8 dereferenceable(48) ptr @_ZN4llvm11raw_ostream5writeEPKcm(ptr noundef nonnull align 8 dereferenceable(48) %19, ptr noundef nonnull @.str.6, i64 noundef 1) #12
  br label %_ZN4llvm11raw_ostreamlsEPKc.exit3

27:                                               ; preds = %_ZN4llvm11raw_ostreamlsEPKc.exit
  store i8 10, ptr %23, align 1
  %28 = load ptr, ptr %22, align 8
  %29 = getelementptr inbounds i8, ptr %28, i64 1
  store ptr %29, ptr %22, align 8
  br label %_ZN4llvm11raw_ostreamlsEPKc.exit3

_ZN4llvm11raw_ostreamlsEPKc.exit3:                ; preds = %25, %27
  ret void
}